target datalayout = "e-m:e-p270:32:32-p271:32:32-p272:64:64-i64:64-i128:128-f80:128-n8:16:32:64-S128"
target triple = "x86_64-pc-linux-gnu"

%struct.redisServer = type { i32, i64, ptr, ptr, ptr, i32, i32, i32, i32, i32, ptr, ptr, ptr, ptr, ptr, i32, i32, i32, i32, i64, i32, i32, i32, i32, ptr, i32, i32, [41 x i8], i32, i64, i32, i32, i32, ptr, ptr, i32, i32, i64, ptr, ptr, ptr, ptr, [2 x i32], i32, i32, i32, i32, i32, i32, [16 x ptr], i32, ptr, ptr, i32, [8 x %struct.connListener], i32, %struct.connListener, ptr, ptr, ptr, ptr, ptr, ptr, ptr, ptr, ptr, ptr, i32, ptr, i32, ptr, [3 x %struct.pause_event], [256 x i8], ptr, i64, i32, i32, [128 x i32], i32, i32, i64, i32, i32, i32, i32, i32, i64, i64, i64, i64, i64, i64, i64, i64, i64, i64, double, i64, i64, i64, i64, i64, i64, i64, i64, i64, i64, i64, i64, i64, i64, i64, i64, i64, i64, i64, i64, i64, double, i64, i64, i64, i64, i64, ptr, i64, i64, i64, %struct.malloc_stats, i64, i64, i64, i64, i64, i64, i64, i64, i64, i64, i64, i64, double, [4 x i64], i64, i64, i64, i64, [128 x i64], [128 x i64], i64, i64, [7 x %struct.anon], i64, i64, i64, i64, i64, i64, [4 x %struct.durationStats], i32, i32, i32, i32, i32, i32, i32, i32, i32, i32, i32, i32, i64, i32, i32, i32, i32, i64, i64, i32, i32, i32, i32, i32, ptr, [3 x %struct.clientBufferLimitsConfig], i32, i32, i32, ptr, i32, i32, i32, i32, i32, i32, ptr, ptr, i32, i32, i64, i64, i64, i64, i64, i32, i32, ptr, i32, i32, i64, i64, i64, i64, i64, i32, i32, i64, i32, i32, i32, i32, i32, i32, i32, i32, ptr, i32, i64, i64, i64, i64, i32, ptr, i32, ptr, i32, i32, i32, i64, i64, i64, i64, i32, i32, i32, i32, i32, i32, ptr, i32, i32, ptr, i32, i32, i32, [2 x i32], i32, %struct.redisOpArray, i32, ptr, i32, ptr, i32, i32, i32, i32, i32, i32, i32, [41 x i8], [41 x i8], i64, i64, i64, i64, i32, i32, ptr, i64, i64, %struct.replDataBuf, i64, i64, i32, i32, i32, i32, i32, i32, i32, i32, i32, i64, ptr, i64, ptr, ptr, ptr, i32, i32, ptr, ptr, i32, i32, i32, i64, i64, i64, i64, ptr, ptr, i32, ptr, i64, i32, i32, i32, i64, i32, i32, i32, i32, ptr, i32, i32, [41 x i8], i64, i32, ptr, i32, i32, i64, i64, i32, i32, i32, i32, i32, i64, [3 x i32], i32, i32, i32, [10 x i32], ptr, ptr, i32, i64, ptr, ptr, i32, i32, i32, i32, i64, i64, i64, i64, i64, i64, i64, i64, i64, i64, i32, i32, i64, i64, i32, i64, i64, i64, i64, i64, ptr, ptr, i32, ptr, i32, i32, i32, i32, i64, i64, ptr, ptr, i32, i32, i32, i32, i32, ptr, ptr, ptr, i32, i32, i32, i32, i32, i32, i32, i64, i32, i32, i64, i32, i32, i32, i32, i32, i32, i32, i64, ptr, ptr, i64, ptr, i32, %struct.aclInfo, i32, i64, i32, i32, i32, %struct.redisTLSContextConfig, ptr, ptr, ptr, ptr, ptr, i64, i32, ptr, i32, i32, i32, i64, i32, ptr }
%struct.connListener = type { [16 x i32], i32, ptr, i32, i32, ptr, ptr }
%struct.pause_event = type { i32, i64 }
%struct.malloc_stats = type { i64, i64, i64, i64, i64, i64, i64, i64, i64, i64, i64 }
%struct.anon = type { i64, i64, [16 x i64], i32 }
%struct.durationStats = type { i64, i64, i64 }
%struct.clientBufferLimitsConfig = type { i64, i64, i64 }
%struct.redisOpArray = type { ptr, i32, i32 }
%struct.replDataBuf = type { ptr, i64, i64, i64, i64 }
%struct.aclInfo = type { i64, i64, i64, i64 }
%struct.redisTLSContextConfig = type { ptr, ptr, ptr, ptr, ptr, ptr, ptr, ptr, ptr, ptr, ptr, ptr, i32, i32, i32, i32 }
%struct._clusterNode = type { i64, [40 x i8], [40 x i8], i32, i64, [2048 x i8], ptr, i32, i32, i32, ptr, ptr, i64, i64, i64, i64, i64, i64, i64, i64, i64, [46 x i8], ptr, ptr, i32, i32, i32, ptr, ptr, ptr }
%struct.clusterState = type { ptr, i64, i32, i32, ptr, ptr, ptr, [16384 x ptr], [16384 x ptr], [16384 x ptr], [40 x i8], i64, i32, i32, i32, i64, i32, i64, ptr, i64, i32, i64, i32, [11 x i64], [11 x i64], i64, i64, [2048 x i8] }

@server = external global %struct.redisServer, align 8

; Function Attrs: nounwind uwtable
define dso_local ptr @clusterLookupNode(ptr noundef %0, i32 noundef %1) #0 {
  %3 = alloca ptr, align 8
  %4 = alloca ptr, align 8
  %5 = alloca i32, align 4
  %6 = alloca ptr, align 8
  %7 = alloca ptr, align 8
  %8 = alloca i32, align 4
  store ptr %0, ptr %4, align 8, !tbaa !52
  store i32 %1, ptr %5, align 4, !tbaa !46
  %9 = load ptr, ptr %4, align 8, !tbaa !52
  %10 = load i32, ptr %5, align 4, !tbaa !46
  %11 = call i32 @verifyClusterNodeId(ptr noundef %9, i32 noundef %10)
  %12 = icmp ne i32 %11, 0
  br i1 %12, label %13, label %14

13:                                               ; preds = %2
  store ptr null, ptr %3, align 8
  br label %32

14:                                               ; preds = %2
  call void @llvm.lifetime.start.p0(i64 8, ptr %6) #16
  %15 = load ptr, ptr %4, align 8, !tbaa !52
  %16 = load i32, ptr %5, align 4, !tbaa !46
  %17 = sext i32 %16 to i64
  %18 = call ptr @sdsnewlen(ptr noundef %15, i64 noundef %17)
  store ptr %18, ptr %6, align 8, !tbaa !52
  call void @llvm.lifetime.start.p0(i64 8, ptr %7) #16
  %19 = load ptr, ptr getelementptr inbounds nuw (%struct.redisServer, ptr @server, i32 0, i32 385), align 8, !tbaa !57
  %20 = getelementptr inbounds nuw %struct.clusterState, ptr %19, i32 0, i32 4
  %21 = load ptr, ptr %20, align 8, !tbaa !95
  %22 = load ptr, ptr %6, align 8, !tbaa !52
  %23 = call ptr @dictFind(ptr noundef %21, ptr noundef %22)
  store ptr %23, ptr %7, align 8, !tbaa !60
  %24 = load ptr, ptr %6, align 8, !tbaa !52
  call void @sdsfree(ptr noundef %24)
  %25 = load ptr, ptr %7, align 8, !tbaa !60
  %26 = icmp eq ptr %25, null
  br i1 %26, label %27, label %28

27:                                               ; preds = %14
  store ptr null, ptr %3, align 8
  store i32 1, ptr %8, align 4
  br label %31

28:                                               ; preds = %14
  %29 = load ptr, ptr %7, align 8, !tbaa !60
  %30 = call ptr @dictGetVal(ptr noundef %29)
  store ptr %30, ptr %3, align 8
  store i32 1, ptr %8, align 4
  br label %31

31:                                               ; preds = %28, %27
  call void @llvm.lifetime.end.p0(i64 8, ptr %7) #16
  call void @llvm.lifetime.end.p0(i64 8, ptr %6) #16
  br label %32

32:                                               ; preds = %31, %13
  %33 = load ptr, ptr %3, align 8
  ret ptr %33
}

; Function Attrs: nounwind uwtable
define dso_local i32 @clusterSendModuleMessageToTarget(ptr noundef %0, i64 noundef %1, i8 noundef zeroext %2, ptr noundef %3, i32 noundef %4) #0 {
  %6 = alloca i32, align 4
  %7 = alloca ptr, align 8
  %8 = alloca i64, align 8
  %9 = alloca i8, align 1
  %10 = alloca ptr, align 8
  %11 = alloca i32, align 4
  %12 = alloca ptr, align 8
  %13 = alloca i32, align 4
  store ptr %0, ptr %7, align 8, !tbaa !52
  store i64 %1, ptr %8, align 8, !tbaa !65
  store i8 %2, ptr %9, align 1, !tbaa !54
  store ptr %3, ptr %10, align 8, !tbaa !52
  store i32 %4, ptr %11, align 4, !tbaa !46
  call void @llvm.lifetime.start.p0(i64 8, ptr %12) #16
  store ptr null, ptr %12, align 8, !tbaa !5
  %14 = load ptr, ptr %7, align 8, !tbaa !52
  %15 = icmp ne ptr %14, null
  br i1 %15, label %16, label %31

16:                                               ; preds = %5
  %17 = load ptr, ptr %7, align 8, !tbaa !52
  %18 = load ptr, ptr %7, align 8, !tbaa !52
  %19 = call i64 @strlen(ptr noundef %18) #17
  %20 = trunc i64 %19 to i32
  %21 = call ptr @clusterLookupNode(ptr noundef %17, i32 noundef %20)
  store ptr %21, ptr %12, align 8, !tbaa !5
  %22 = load ptr, ptr %12, align 8, !tbaa !5
  %23 = icmp eq ptr %22, null
  br i1 %23, label %29, label %24

24:                                               ; preds = %16
  %25 = load ptr, ptr %12, align 8, !tbaa !5
  %26 = getelementptr inbounds nuw %struct._clusterNode, ptr %25, i32 0, i32 27
  %27 = load ptr, ptr %26, align 8, !tbaa !102
  %28 = icmp eq ptr %27, null
  br i1 %28, label %29, label %30

29:                                               ; preds = %24, %16
  store i32 -1, ptr %6, align 4
  store i32 1, ptr %13, align 4
  br label %45

30:                                               ; preds = %24
  br label %31

31:                                               ; preds = %30, %5
  %32 = load ptr, ptr %7, align 8, !tbaa !52
  %33 = icmp ne ptr %32, null
  br i1 %33, label %34, label %38

34:                                               ; preds = %31
  %35 = load ptr, ptr %12, align 8, !tbaa !5
  %36 = getelementptr inbounds nuw %struct._clusterNode, ptr %35, i32 0, i32 27
  %37 = load ptr, ptr %36, align 8, !tbaa !102
  br label %39

38:                                               ; preds = %31
  br label %39

39:                                               ; preds = %38, %34
  %40 = phi ptr [ %37, %34 ], [ null, %38 ]
  %41 = load i64, ptr %8, align 8, !tbaa !65
  %42 = load i8, ptr %9, align 1, !tbaa !54
  %43 = load ptr, ptr %10, align 8, !tbaa !52
  %44 = load i32, ptr %11, align 4, !tbaa !46
  call void @clusterSendModule(ptr noundef %40, i64 noundef %41, i8 noundef zeroext %42, ptr noundef %43, i32 noundef %44)
  store i32 0, ptr %6, align 4
  store i32 1, ptr %13, align 4
  br label %45

45:                                               ; preds = %39, %29
  call void @llvm.lifetime.end.p0(i64 8, ptr %12) #16
  %46 = load i32, ptr %6, align 4
  ret i32 %46
}