; Function Attrs: nounwind uwtable
define dso_local range(i32 -1, 1) i32 @clusterSendModuleMessageToTarget(ptr noundef %0, i64 noundef %1, i8 noundef zeroext %2, ptr noundef readonly captures(none) %3, i32 noundef %4) local_unnamed_addr #3 {
  %.not = icmp eq ptr %0, null
  br i1 %.not, label %.thread, label %6

6:                                                ; preds = %5
  %7 = tail call i64 @strlen(ptr noundef nonnull dereferenceable(1) %0) #34
  %8 = trunc i64 %7 to i32
  %9 = tail call i32 @verifyClusterNodeId(ptr noundef nonnull %0, i32 noundef %8) #33
  %.not.i = icmp eq i32 %9, 0
  br i1 %.not.i, label %10, label %clusterLookupNode.exit.thread

10:                                               ; preds = %6
  %sext = shl i64 %7, 32
  %11 = ashr exact i64 %sext, 32
  %12 = tail call ptr @sdsnewlen(ptr noundef nonnull %0, i64 noundef %11) #33
  %13 = load ptr, ptr getelementptr inbounds nuw (i8, ptr @server, i64 7920), align 8, !tbaa !56
  %14 = getelementptr inbounds nuw i8, ptr %13, i64 24
  %15 = load ptr, ptr %14, align 8, !tbaa !72
  %16 = tail call ptr @dictFind(ptr noundef %15, ptr noundef %12) #33
  tail call void @sdsfree(ptr noundef %12) #33
  %17 = icmp eq ptr %16, null
  br i1 %17, label %clusterLookupNode.exit.thread, label %clusterLookupNode.exit

clusterLookupNode.exit:                           ; preds = %10
  %18 = tail call ptr @dictGetVal(ptr noundef nonnull %16) #33
  %19 = icmp eq ptr %18, null
  br i1 %19, label %clusterLookupNode.exit.thread, label %20

20:                                               ; preds = %clusterLookupNode.exit
  %21 = getelementptr inbounds nuw i8, ptr %18, i64 2344
  %22 = load ptr, ptr %21, align 8, !tbaa !164
  %23 = icmp eq ptr %22, null
  br i1 %23, label %clusterLookupNode.exit.thread, label %.thread

.thread:                                          ; preds = %20, %5
  %24 = phi ptr [ null, %5 ], [ %22, %20 ]
  tail call void @clusterSendModule(ptr noundef %24, i64 noundef %1, i8 noundef zeroext %2, ptr noundef %3, i32 noundef %4)
  br label %clusterLookupNode.exit.thread

clusterLookupNode.exit.thread:                    ; preds = %10, %6, %clusterLookupNode.exit, %20, %.thread
  %.011 = phi i32 [ 0, %.thread ], [ -1, %20 ], [ -1, %clusterLookupNode.exit ], [ -1, %6 ], [ -1, %10 ]
  ret i32 %.011
}